; Function Attrs: mustprogress nofree nounwind willreturn memory(read, inaccessiblemem: none) uwtable
define dso_local { ptr, i64 } @_ZNK4llvm21TargetLibraryInfoImpl21getVectorizedFunctionENS_9StringRefERKNS_12ElementCountEb(ptr nocapture noundef nonnull readonly align 8 dereferenceable(208) %0, ptr readonly %1, i64 %2, ptr nocapture noundef nonnull readonly align 4 dereferenceable(5) %3, i1 noundef zeroext %4) local_unnamed_addr #8 align 2 {
  %6 = tail call noundef ptr @_ZNK4llvm21TargetLibraryInfoImpl20getVectorMappingInfoENS_9StringRefERKNS_12ElementCountEb(ptr noundef nonnull align 8 dereferenceable(208) %0, ptr %1, i64 %2, ptr noundef nonnull align 4 dereferenceable(5) %3, i1 noundef zeroext %4)
  %.not = icmp eq ptr %6, null
  br i1 %.not, label %9, label %7

7:                                                ; preds = %5
  %8 = getelementptr inbounds nuw i8, ptr %6, i64 16
  %.sroa.0.0.copyload.i = load ptr, ptr %8, align 8
  %.sroa.2.0..sroa_idx.i = getelementptr inbounds i8, ptr %6, i64 24
  %.sroa.2.0.copyload.i = load i64, ptr %.sroa.2.0..sroa_idx.i, align 8
  br label %9

9:                                                ; preds = %5, %7
  %.sroa.0.0 = phi ptr [ %.sroa.0.0.copyload.i, %7 ], [ null, %5 ]
  %.sroa.4.0 = phi i64 [ %.sroa.2.0.copyload.i, %7 ], [ 0, %5 ]
  %.fca.0.insert = insertvalue { ptr, i64 } poison, ptr %.sroa.0.0, 0
  %.fca.1.insert = insertvalue { ptr, i64 } %.fca.0.insert, i64 %.sroa.4.0, 1
  ret { ptr, i64 } %.fca.1.insert
}